target datalayout = "e-m:e-p270:32:32-p271:32:32-p272:64:64-i64:64-i128:128-f80:128-n8:16:32:64-S128"
target triple = "x86_64-pc-linux-gnu"

%struct.poly1305_state_internal_t = type { [3 x i64], [3 x i64], [2 x i64], i64, [16 x i8], i8 }

; Function Attrs: alwaysinline nounwind
define internal ptr @memcpy.inline(ptr noalias nonnull %0, ptr noalias nonnull %1, i64 %2) #4 {
  %4 = alloca ptr, align 8
  %5 = alloca ptr, align 8
  %6 = alloca i64, align 8
  store ptr %0, ptr %4, align 8
  store ptr %1, ptr %5, align 8
  store i64 %2, ptr %6, align 8
  %7 = load ptr, ptr %4, align 8
  %8 = load ptr, ptr %5, align 8
  %9 = load i64, ptr %6, align 8
  %10 = load ptr, ptr %4, align 8
  %11 = call i64 @llvm.objectsize.i64.p0(ptr %10, i1 false, i1 true, i1 true)
  %12 = call ptr @__memcpy_chk(ptr noundef %7, ptr noundef %8, i64 noundef %9, i64 noundef %11) #8
  ret ptr %12
}

; Function Attrs: inlinehint nounwind ssp uwtable
define internal i64 @load64_le(ptr noundef %0) #3 {
  %2 = alloca ptr, align 8
  %3 = alloca i64, align 8
  store ptr %0, ptr %2, align 8
  call void @llvm.lifetime.start.p0(i64 8, ptr %3) #8
  %4 = load ptr, ptr %2, align 8
  %5 = call ptr @memcpy.inline(ptr noundef %3, ptr noundef %4, i64 noundef 8) #8
  %6 = load i64, ptr %3, align 8
  call void @llvm.lifetime.end.p0(i64 8, ptr %3) #8
  ret i64 %6
}

; Function Attrs: nounwind ssp uwtable
define internal void @poly1305_init(ptr noundef %0, ptr noundef %1) #0 {
  %3 = alloca ptr, align 8
  %4 = alloca ptr, align 8
  %5 = alloca i64, align 8
  %6 = alloca i64, align 8
  store ptr %0, ptr %3, align 8
  store ptr %1, ptr %4, align 8
  call void @llvm.lifetime.start.p0(i64 8, ptr %5) #8
  call void @llvm.lifetime.start.p0(i64 8, ptr %6) #8
  %7 = load ptr, ptr %4, align 8
  %8 = getelementptr i8, ptr %7, i64 0
  %9 = call i64 @load64_le(ptr noundef %8)
  store i64 %9, ptr %5, align 8
  %10 = load ptr, ptr %4, align 8
  %11 = getelementptr i8, ptr %10, i64 8
  %12 = call i64 @load64_le(ptr noundef %11)
  store i64 %12, ptr %6, align 8
  %13 = load i64, ptr %5, align 8
  %14 = and i64 %13, 17575274610687
  %15 = load ptr, ptr %3, align 8
  %16 = getelementptr inbounds nuw %struct.poly1305_state_internal_t, ptr %15, i32 0, i32 0
  %17 = getelementptr [3 x i64], ptr %16, i64 0, i64 0
  store i64 %14, ptr %17, align 8
  %18 = load i64, ptr %5, align 8
  %19 = lshr i64 %18, 44
  %20 = load i64, ptr %6, align 8
  %21 = shl i64 %20, 20
  %22 = or i64 %19, %21
  %23 = and i64 %22, 17592181915647
  %24 = load ptr, ptr %3, align 8
  %25 = getelementptr inbounds nuw %struct.poly1305_state_internal_t, ptr %24, i32 0, i32 0
  %26 = getelementptr [3 x i64], ptr %25, i64 0, i64 1
  store i64 %23, ptr %26, align 8
  %27 = load i64, ptr %6, align 8
  %28 = lshr i64 %27, 24
  %29 = and i64 %28, 68719475727
  %30 = load ptr, ptr %3, align 8
  %31 = getelementptr inbounds nuw %struct.poly1305_state_internal_t, ptr %30, i32 0, i32 0
  %32 = getelementptr [3 x i64], ptr %31, i64 0, i64 2
  store i64 %29, ptr %32, align 8
  %33 = load ptr, ptr %3, align 8
  %34 = getelementptr inbounds nuw %struct.poly1305_state_internal_t, ptr %33, i32 0, i32 1
  %35 = getelementptr [3 x i64], ptr %34, i64 0, i64 0
  store i64 0, ptr %35, align 8
  %36 = load ptr, ptr %3, align 8
  %37 = getelementptr inbounds nuw %struct.poly1305_state_internal_t, ptr %36, i32 0, i32 1
  %38 = getelementptr [3 x i64], ptr %37, i64 0, i64 1
  store i64 0, ptr %38, align 8
  %39 = load ptr, ptr %3, align 8
  %40 = getelementptr inbounds nuw %struct.poly1305_state_internal_t, ptr %39, i32 0, i32 1
  %41 = getelementptr [3 x i64], ptr %40, i64 0, i64 2
  store i64 0, ptr %41, align 8
  %42 = load ptr, ptr %4, align 8
  %43 = getelementptr i8, ptr %42, i64 16
  %44 = call i64 @load64_le(ptr noundef %43)
  %45 = load ptr, ptr %3, align 8
  %46 = getelementptr inbounds nuw %struct.poly1305_state_internal_t, ptr %45, i32 0, i32 2
  %47 = getelementptr [2 x i64], ptr %46, i64 0, i64 0
  store i64 %44, ptr %47, align 8
  %48 = load ptr, ptr %4, align 8
  %49 = getelementptr i8, ptr %48, i64 24
  %50 = call i64 @load64_le(ptr noundef %49)
  %51 = load ptr, ptr %3, align 8
  %52 = getelementptr inbounds nuw %struct.poly1305_state_internal_t, ptr %51, i32 0, i32 2
  %53 = getelementptr [2 x i64], ptr %52, i64 0, i64 1
  store i64 %50, ptr %53, align 8
  %54 = load ptr, ptr %3, align 8
  %55 = getelementptr inbounds nuw %struct.poly1305_state_internal_t, ptr %54, i32 0, i32 3
  store i64 0, ptr %55, align 8
  %56 = load ptr, ptr %3, align 8
  %57 = getelementptr inbounds nuw %struct.poly1305_state_internal_t, ptr %56, i32 0, i32 5
  store i8 0, ptr %57, align 8
  call void @llvm.lifetime.end.p0(i64 8, ptr %6) #8
  call void @llvm.lifetime.end.p0(i64 8, ptr %5) #8
  ret void
}

; Function Attrs: nounwind ssp uwtable
define internal i32 @crypto_onetimeauth_poly1305_donna_init(ptr noundef %0, ptr noundef %1) #0 {
  %3 = alloca ptr, align 8
  %4 = alloca ptr, align 8
  store ptr %0, ptr %3, align 8
  store ptr %1, ptr %4, align 8
  %5 = load ptr, ptr %3, align 8
  %6 = load ptr, ptr %4, align 8
  call void @poly1305_init(ptr noundef %5, ptr noundef %6)
  ret i32 0
}