; Function Attrs: mustprogress nofree norecurse nosync nounwind ssp willreturn memory(argmem: readwrite) uwtable
define internal noundef i32 @crypto_onetimeauth_poly1305_donna_init(ptr noundef writeonly captures(none) initializes((0, 72), (88, 89)) %0, ptr noundef readonly captures(none) %1) #1 {
  %3 = load i64, ptr %1, align 1
  %4 = getelementptr i8, ptr %1, i64 8
  %5 = load i64, ptr %4, align 1
  %6 = and i64 %3, 17575274610687
  store i64 %6, ptr %0, align 8
  %7 = tail call i64 @llvm.fshl.i64(i64 %5, i64 %3, i64 20)
  %8 = and i64 %7, 17592181915647
  %9 = getelementptr i8, ptr %0, i64 8
  store i64 %8, ptr %9, align 8
  %10 = lshr i64 %5, 24
  %11 = and i64 %10, 68719475727
  %12 = getelementptr i8, ptr %0, i64 16
  store i64 %11, ptr %12, align 8
  %13 = getelementptr inbounds nuw i8, ptr %0, i64 24
  %14 = getelementptr i8, ptr %1, i64 16
  tail call void @llvm.memset.p0.i64(ptr noundef nonnull align 8 dereferenceable(24) %13, i8 0, i64 24, i1 false)
  %15 = load i64, ptr %14, align 1
  %16 = getelementptr inbounds nuw i8, ptr %0, i64 48
  store i64 %15, ptr %16, align 8
  %17 = getelementptr i8, ptr %1, i64 24
  %18 = load i64, ptr %17, align 1
  %19 = getelementptr i8, ptr %0, i64 56
  store i64 %18, ptr %19, align 8
  %20 = getelementptr inbounds nuw i8, ptr %0, i64 64
  store i64 0, ptr %20, align 8
  %21 = getelementptr inbounds nuw i8, ptr %0, i64 88
  store i8 0, ptr %21, align 8
  ret i32 0
}